target datalayout = "e-m:e-p270:32:32-p271:32:32-p272:64:64-i64:64-i128:128-f80:128-n8:16:32:64-S128"
target triple = "x86_64-pc-linux-gnu"

%"struct.clang::ASTNodeKind::KindInfo" = type { i32, ptr }
%"class.clang::ASTNodeKind" = type { i32 }

; Function Attrs: mustprogress nounwind uwtable
define linkonce_odr hidden void @_ZN5clang11ASTNodeKindC2ENS0_10NodeKindIdE(ptr noundef nonnull align 4 dereferenceable(4) %0, i32 noundef %1) unnamed_addr #0 comdat align 2 {
  %3 = alloca ptr, align 8
  %4 = alloca i32, align 4
  store ptr %0, ptr %3, align 8
  store i32 %1, ptr %4, align 4
  %5 = load ptr, ptr %3, align 8
  %6 = getelementptr inbounds nuw %"class.clang::ASTNodeKind", ptr %5, i32 0, i32 0
  %7 = load i32, ptr %4, align 4
  store i32 %7, ptr %6, align 4
  ret void
}

; Function Attrs: mustprogress nounwind uwtable
define dso_local i32 @_ZNK5clang11ASTNodeKind12getCladeKindEv(ptr noundef nonnull align 4 dereferenceable(4) %0) #0 align 2 {
  %2 = alloca %"class.clang::ASTNodeKind", align 4
  %3 = alloca ptr, align 8
  %4 = alloca i32, align 4
  %5 = alloca i32, align 4
  store ptr %0, ptr %3, align 8
  %6 = load ptr, ptr %3, align 8
  %7 = getelementptr inbounds nuw %"class.clang::ASTNodeKind", ptr %6, i32 0, i32 0
  %8 = load i32, ptr %7, align 4
  store i32 %8, ptr %4, align 4
  br label %9

9:                                                ; preds = %22, %1
  %10 = load i32, ptr %4, align 4
  %11 = icmp ne i32 %10, 0
  br i1 %11, label %12, label %24

12:                                               ; preds = %9
  %13 = load i32, ptr %4, align 4
  %14 = zext i32 %13 to i64
  %15 = getelementptr inbounds [1018 x %"struct.clang::ASTNodeKind::KindInfo"], ptr @_ZN5clang11ASTNodeKind11AllKindInfoE, i64 0, i64 %14
  %16 = getelementptr inbounds nuw %"struct.clang::ASTNodeKind::KindInfo", ptr %15, i32 0, i32 0
  %17 = load i32, ptr %16, align 16
  store i32 %17, ptr %5, align 4
  %18 = load i32, ptr %5, align 4
  %19 = icmp eq i32 %18, 0
  br i1 %19, label %20, label %22

20:                                               ; preds = %12
  %21 = load i32, ptr %4, align 4
  call void @_ZN5clang11ASTNodeKindC2ENS0_10NodeKindIdE(ptr noundef nonnull align 4 dereferenceable(4) %2, i32 noundef %21)
  br label %25

22:                                               ; preds = %12
  %23 = load i32, ptr %5, align 4
  store i32 %23, ptr %4, align 4
  br label %9, !llvm.loop !7

24:                                               ; preds = %9
  call void @_ZN5clang11ASTNodeKindC2ENS0_10NodeKindIdE(ptr noundef nonnull align 4 dereferenceable(4) %2, i32 noundef 0)
  br label %25

25:                                               ; preds = %24, %20
  %26 = getelementptr inbounds nuw %"class.clang::ASTNodeKind", ptr %2, i32 0, i32 0
  %27 = load i32, ptr %26, align 4
  ret i32 %27
}