; Function Attrs: mustprogress nofree norecurse nosync nounwind willreturn memory(argmem: read) uwtable
define dso_local i32 @_ZNK5clang11ASTNodeKind12getCladeKindEv(ptr nocapture noundef nonnull readonly align 4 dereferenceable(4) %0) local_unnamed_addr #0 align 2 {
  %2 = load i32, ptr %0, align 4
  br label %3

3:                                                ; preds = %4, %1
  %.0 = phi i32 [ %2, %1 ], [ %7, %4 ]
  %.not = icmp eq i32 %.0, 0
  br i1 %.not, label %9, label %4

4:                                                ; preds = %3
  %5 = zext i32 %.0 to i64
  %6 = getelementptr inbounds [1018 x %"struct.clang::ASTNodeKind::KindInfo"], ptr @_ZN5clang11ASTNodeKind11AllKindInfoE, i64 0, i64 %5
  %7 = load i32, ptr %6, align 16
  %8 = icmp eq i32 %7, 0
  br i1 %8, label %9, label %3, !llvm.loop !7

9:                                                ; preds = %3, %4
  ret i32 %.0
}